target datalayout = "e-m:e-p270:32:32-p271:32:32-p272:64:64-i64:64-i128:128-f80:128-n8:16:32:64-S128"
target triple = "x86_64-unknown-linux-gnu"

%struct.NamedGPIOList = type { ptr, ptr, i32, i32, %struct.anon }
%struct.anon = type { ptr, ptr }
%struct.DeviceState = type { %struct.Object, ptr, ptr, i8, i8, i64, ptr, i32, i8, ptr, %struct.NamedGPIOListHead, %struct.NamedClockListHead, %struct.BusStateHead, i32, i32, i32, %struct.ResettableState, ptr, %struct.MemReentrancyGuard }
%struct.Object = type { ptr, ptr, ptr, i32, ptr }
%struct.NamedGPIOListHead = type { ptr }
%struct.NamedClockListHead = type { ptr }
%struct.BusStateHead = type { ptr }
%struct.ResettableState = type { i32, i8, i8 }
%struct.MemReentrancyGuard = type { i8 }

@.str.2 = private unnamed_addr constant [16 x i8] c"unnamed-gpio-in\00", align 1
@.str.5 = private unnamed_addr constant [17 x i8] c"unnamed-gpio-out\00", align 1
@.str.8 = private unnamed_addr constant [7 x i8] c"%s[%d]\00", align 1

; Function Attrs: nounwind sspstrong uwtable
define internal ptr @qdev_get_named_gpio_list(ptr noundef %dev, ptr noundef %name) #0 {
entry:
  %retval = alloca ptr, align 8
  %dev.addr = alloca ptr, align 8
  %name.addr = alloca ptr, align 8
  %ngl = alloca ptr, align 8
  store ptr %dev, ptr %dev.addr, align 8
  store ptr %name, ptr %name.addr, align 8
  %0 = load ptr, ptr %dev.addr, align 8
  %gpios = getelementptr inbounds %struct.DeviceState, ptr %0, i32 0, i32 10
  %lh_first = getelementptr inbounds %struct.NamedGPIOListHead, ptr %gpios, i32 0, i32 0
  %1 = load ptr, ptr %lh_first, align 8
  store ptr %1, ptr %ngl, align 8
  br label %for.cond

for.cond:                                         ; preds = %for.inc, %entry
  %2 = load ptr, ptr %ngl, align 8
  %tobool = icmp ne ptr %2, null
  br i1 %tobool, label %for.body, label %for.end

for.body:                                         ; preds = %for.cond
  %3 = load ptr, ptr %name.addr, align 8
  %4 = load ptr, ptr %ngl, align 8
  %name1 = getelementptr inbounds %struct.NamedGPIOList, ptr %4, i32 0, i32 0
  %5 = load ptr, ptr %name1, align 8
  %call = call i32 @g_strcmp0(ptr noundef %3, ptr noundef %5)
  %cmp = icmp eq i32 %call, 0
  br i1 %cmp, label %if.then, label %if.end

if.then:                                          ; preds = %for.body
  %6 = load ptr, ptr %ngl, align 8
  store ptr %6, ptr %retval, align 8
  br label %return

if.end:                                           ; preds = %for.body
  br label %for.inc

for.inc:                                          ; preds = %if.end
  %7 = load ptr, ptr %ngl, align 8
  %node = getelementptr inbounds %struct.NamedGPIOList, ptr %7, i32 0, i32 4
  %le_next = getelementptr inbounds %struct.anon, ptr %node, i32 0, i32 0
  %8 = load ptr, ptr %le_next, align 8
  store ptr %8, ptr %ngl, align 8
  br label %for.cond, !llvm.loop !7

for.end:                                          ; preds = %for.cond
  %call2 = call noalias ptr @g_malloc0(i64 noundef 40) #6
  store ptr %call2, ptr %ngl, align 8
  %9 = load ptr, ptr %name.addr, align 8
  %call3 = call noalias ptr @g_strdup(ptr noundef %9)
  %10 = load ptr, ptr %ngl, align 8
  %name4 = getelementptr inbounds %struct.NamedGPIOList, ptr %10, i32 0, i32 0
  store ptr %call3, ptr %name4, align 8
  br label %do.body

do.body:                                          ; preds = %for.end
  %11 = load ptr, ptr %dev.addr, align 8
  %gpios5 = getelementptr inbounds %struct.DeviceState, ptr %11, i32 0, i32 10
  %lh_first6 = getelementptr inbounds %struct.NamedGPIOListHead, ptr %gpios5, i32 0, i32 0
  %12 = load ptr, ptr %lh_first6, align 8
  %13 = load ptr, ptr %ngl, align 8
  %node7 = getelementptr inbounds %struct.NamedGPIOList, ptr %13, i32 0, i32 4
  %le_next8 = getelementptr inbounds %struct.anon, ptr %node7, i32 0, i32 0
  store ptr %12, ptr %le_next8, align 8
  %cmp9 = icmp ne ptr %12, null
  br i1 %cmp9, label %if.then10, label %if.end16

if.then10:                                        ; preds = %do.body
  %14 = load ptr, ptr %ngl, align 8
  %node11 = getelementptr inbounds %struct.NamedGPIOList, ptr %14, i32 0, i32 4
  %le_next12 = getelementptr inbounds %struct.anon, ptr %node11, i32 0, i32 0
  %15 = load ptr, ptr %dev.addr, align 8
  %gpios13 = getelementptr inbounds %struct.DeviceState, ptr %15, i32 0, i32 10
  %lh_first14 = getelementptr inbounds %struct.NamedGPIOListHead, ptr %gpios13, i32 0, i32 0
  %16 = load ptr, ptr %lh_first14, align 8
  %node15 = getelementptr inbounds %struct.NamedGPIOList, ptr %16, i32 0, i32 4
  %le_prev = getelementptr inbounds %struct.anon, ptr %node15, i32 0, i32 1
  store ptr %le_next12, ptr %le_prev, align 8
  br label %if.end16

if.end16:                                         ; preds = %if.then10, %do.body
  %17 = load ptr, ptr %ngl, align 8
  %18 = load ptr, ptr %dev.addr, align 8
  %gpios17 = getelementptr inbounds %struct.DeviceState, ptr %18, i32 0, i32 10
  %lh_first18 = getelementptr inbounds %struct.NamedGPIOListHead, ptr %gpios17, i32 0, i32 0
  store ptr %17, ptr %lh_first18, align 8
  %19 = load ptr, ptr %dev.addr, align 8
  %gpios19 = getelementptr inbounds %struct.DeviceState, ptr %19, i32 0, i32 10
  %lh_first20 = getelementptr inbounds %struct.NamedGPIOListHead, ptr %gpios19, i32 0, i32 0
  %20 = load ptr, ptr %ngl, align 8
  %node21 = getelementptr inbounds %struct.NamedGPIOList, ptr %20, i32 0, i32 4
  %le_prev22 = getelementptr inbounds %struct.anon, ptr %node21, i32 0, i32 1
  store ptr %lh_first20, ptr %le_prev22, align 8
  br label %do.end

do.end:                                           ; preds = %if.end16
  %21 = load ptr, ptr %ngl, align 8
  store ptr %21, ptr %retval, align 8
  br label %return

return:                                           ; preds = %do.end, %if.then
  %22 = load ptr, ptr %retval, align 8
  ret ptr %22
}

; Function Attrs: nounwind sspstrong uwtable
define dso_local void @qdev_pass_gpios(ptr noundef %dev, ptr noundef %container, ptr noundef %name) #0 {
entry:
  %dev.addr = alloca ptr, align 8
  %container.addr = alloca ptr, align 8
  %name.addr = alloca ptr, align 8
  %i = alloca i32, align 4
  %ngl = alloca ptr, align 8
  %nm = alloca ptr, align 8
  %propname = alloca ptr, align 8
  %nm8 = alloca ptr, align 8
  %propname16 = alloca ptr, align 8
  store ptr %dev, ptr %dev.addr, align 8
  store ptr %container, ptr %container.addr, align 8
  store ptr %name, ptr %name.addr, align 8
  %0 = load ptr, ptr %dev.addr, align 8
  %1 = load ptr, ptr %name.addr, align 8
  %call = call ptr @qdev_get_named_gpio_list(ptr noundef %0, ptr noundef %1)
  store ptr %call, ptr %ngl, align 8
  store i32 0, ptr %i, align 4
  br label %for.cond

for.cond:                                         ; preds = %for.inc, %entry
  %2 = load i32, ptr %i, align 4
  %3 = load ptr, ptr %ngl, align 8
  %num_in = getelementptr inbounds %struct.NamedGPIOList, ptr %3, i32 0, i32 2
  %4 = load i32, ptr %num_in, align 8
  %cmp = icmp slt i32 %2, %4
  br i1 %cmp, label %for.body, label %for.end

for.body:                                         ; preds = %for.cond
  %5 = load ptr, ptr %ngl, align 8
  %name1 = getelementptr inbounds %struct.NamedGPIOList, ptr %5, i32 0, i32 0
  %6 = load ptr, ptr %name1, align 8
  %tobool = icmp ne ptr %6, null
  br i1 %tobool, label %cond.true, label %cond.false

cond.true:                                        ; preds = %for.body
  %7 = load ptr, ptr %ngl, align 8
  %name2 = getelementptr inbounds %struct.NamedGPIOList, ptr %7, i32 0, i32 0
  %8 = load ptr, ptr %name2, align 8
  br label %cond.end

cond.false:                                       ; preds = %for.body
  br label %cond.end

cond.end:                                         ; preds = %cond.false, %cond.true
  %cond = phi ptr [ %8, %cond.true ], [ @.str.2, %cond.false ]
  store ptr %cond, ptr %nm, align 8
  %9 = load ptr, ptr %nm, align 8
  %10 = load i32, ptr %i, align 4
  %call3 = call noalias ptr (ptr, ...) @g_strdup_printf(ptr noundef @.str.8, ptr noundef %9, i32 noundef %10)
  store ptr %call3, ptr %propname, align 8
  %11 = load ptr, ptr %container.addr, align 8
  %12 = load ptr, ptr %propname, align 8
  %13 = load ptr, ptr %dev.addr, align 8
  %14 = load ptr, ptr %propname, align 8
  %call4 = call ptr @object_property_add_alias(ptr noundef %11, ptr noundef %12, ptr noundef %13, ptr noundef %14)
  %15 = load ptr, ptr %propname, align 8
  call void @g_free(ptr noundef %15)
  br label %for.inc

for.inc:                                          ; preds = %cond.end
  %16 = load i32, ptr %i, align 4
  %inc = add i32 %16, 1
  store i32 %inc, ptr %i, align 4
  br label %for.cond, !llvm.loop !9

for.end:                                          ; preds = %for.cond
  store i32 0, ptr %i, align 4
  br label %for.cond5

for.cond5:                                        ; preds = %for.inc19, %for.end
  %17 = load i32, ptr %i, align 4
  %18 = load ptr, ptr %ngl, align 8
  %num_out = getelementptr inbounds %struct.NamedGPIOList, ptr %18, i32 0, i32 3
  %19 = load i32, ptr %num_out, align 4
  %cmp6 = icmp slt i32 %17, %19
  br i1 %cmp6, label %for.body7, label %for.end21

for.body7:                                        ; preds = %for.cond5
  %20 = load ptr, ptr %ngl, align 8
  %name9 = getelementptr inbounds %struct.NamedGPIOList, ptr %20, i32 0, i32 0
  %21 = load ptr, ptr %name9, align 8
  %tobool10 = icmp ne ptr %21, null
  br i1 %tobool10, label %cond.true11, label %cond.false13

cond.true11:                                      ; preds = %for.body7
  %22 = load ptr, ptr %ngl, align 8
  %name12 = getelementptr inbounds %struct.NamedGPIOList, ptr %22, i32 0, i32 0
  %23 = load ptr, ptr %name12, align 8
  br label %cond.end14

cond.false13:                                     ; preds = %for.body7
  br label %cond.end14

cond.end14:                                       ; preds = %cond.false13, %cond.true11
  %cond15 = phi ptr [ %23, %cond.true11 ], [ @.str.5, %cond.false13 ]
  store ptr %cond15, ptr %nm8, align 8
  %24 = load ptr, ptr %nm8, align 8
  %25 = load i32, ptr %i, align 4
  %call17 = call noalias ptr (ptr, ...) @g_strdup_printf(ptr noundef @.str.8, ptr noundef %24, i32 noundef %25)
  store ptr %call17, ptr %propname16, align 8
  %26 = load ptr, ptr %container.addr, align 8
  %27 = load ptr, ptr %propname16, align 8
  %28 = load ptr, ptr %dev.addr, align 8
  %29 = load ptr, ptr %propname16, align 8
  %call18 = call ptr @object_property_add_alias(ptr noundef %26, ptr noundef %27, ptr noundef %28, ptr noundef %29)
  %30 = load ptr, ptr %propname16, align 8
  call void @g_free(ptr noundef %30)
  br label %for.inc19

for.inc19:                                        ; preds = %cond.end14
  %31 = load i32, ptr %i, align 4
  %inc20 = add i32 %31, 1
  store i32 %inc20, ptr %i, align 4
  br label %for.cond5, !llvm.loop !10

for.end21:                                        ; preds = %for.cond5
  br label %do.body

do.body:                                          ; preds = %for.end21
  %32 = load ptr, ptr %ngl, align 8
  %node = getelementptr inbounds %struct.NamedGPIOList, ptr %32, i32 0, i32 4
  %le_next = getelementptr inbounds %struct.anon, ptr %node, i32 0, i32 0
  %33 = load ptr, ptr %le_next, align 8
  %cmp22 = icmp ne ptr %33, null
  br i1 %cmp22, label %if.then, label %if.end

if.then:                                          ; preds = %do.body
  %34 = load ptr, ptr %ngl, align 8
  %node23 = getelementptr inbounds %struct.NamedGPIOList, ptr %34, i32 0, i32 4
  %le_prev = getelementptr inbounds %struct.anon, ptr %node23, i32 0, i32 1
  %35 = load ptr, ptr %le_prev, align 8
  %36 = load ptr, ptr %ngl, align 8
  %node24 = getelementptr inbounds %struct.NamedGPIOList, ptr %36, i32 0, i32 4
  %le_next25 = getelementptr inbounds %struct.anon, ptr %node24, i32 0, i32 0
  %37 = load ptr, ptr %le_next25, align 8
  %node26 = getelementptr inbounds %struct.NamedGPIOList, ptr %37, i32 0, i32 4
  %le_prev27 = getelementptr inbounds %struct.anon, ptr %node26, i32 0, i32 1
  store ptr %35, ptr %le_prev27, align 8
  br label %if.end

if.end:                                           ; preds = %if.then, %do.body
  %38 = load ptr, ptr %ngl, align 8
  %node28 = getelementptr inbounds %struct.NamedGPIOList, ptr %38, i32 0, i32 4
  %le_next29 = getelementptr inbounds %struct.anon, ptr %node28, i32 0, i32 0
  %39 = load ptr, ptr %le_next29, align 8
  %40 = load ptr, ptr %ngl, align 8
  %node30 = getelementptr inbounds %struct.NamedGPIOList, ptr %40, i32 0, i32 4
  %le_prev31 = getelementptr inbounds %struct.anon, ptr %node30, i32 0, i32 1
  %41 = load ptr, ptr %le_prev31, align 8
  store ptr %39, ptr %41, align 8
  %42 = load ptr, ptr %ngl, align 8
  %node32 = getelementptr inbounds %struct.NamedGPIOList, ptr %42, i32 0, i32 4
  %le_next33 = getelementptr inbounds %struct.anon, ptr %node32, i32 0, i32 0
  store ptr null, ptr %le_next33, align 8
  %43 = load ptr, ptr %ngl, align 8
  %node34 = getelementptr inbounds %struct.NamedGPIOList, ptr %43, i32 0, i32 4
  %le_prev35 = getelementptr inbounds %struct.anon, ptr %node34, i32 0, i32 1
  store ptr null, ptr %le_prev35, align 8
  br label %do.end

do.end:                                           ; preds = %if.end
  br label %do.body36

do.body36:                                        ; preds = %do.end
  %44 = load ptr, ptr %container.addr, align 8
  %gpios = getelementptr inbounds %struct.DeviceState, ptr %44, i32 0, i32 10
  %lh_first = getelementptr inbounds %struct.NamedGPIOListHead, ptr %gpios, i32 0, i32 0
  %45 = load ptr, ptr %lh_first, align 8
  %46 = load ptr, ptr %ngl, align 8
  %node37 = getelementptr inbounds %struct.NamedGPIOList, ptr %46, i32 0, i32 4
  %le_next38 = getelementptr inbounds %struct.anon, ptr %node37, i32 0, i32 0
  store ptr %45, ptr %le_next38, align 8
  %cmp39 = icmp ne ptr %45, null
  br i1 %cmp39, label %if.then40, label %if.end47

if.then40:                                        ; preds = %do.body36
  %47 = load ptr, ptr %ngl, align 8
  %node41 = getelementptr inbounds %struct.NamedGPIOList, ptr %47, i32 0, i32 4
  %le_next42 = getelementptr inbounds %struct.anon, ptr %node41, i32 0, i32 0
  %48 = load ptr, ptr %container.addr, align 8
  %gpios43 = getelementptr inbounds %struct.DeviceState, ptr %48, i32 0, i32 10
  %lh_first44 = getelementptr inbounds %struct.NamedGPIOListHead, ptr %gpios43, i32 0, i32 0
  %49 = load ptr, ptr %lh_first44, align 8
  %node45 = getelementptr inbounds %struct.NamedGPIOList, ptr %49, i32 0, i32 4
  %le_prev46 = getelementptr inbounds %struct.anon, ptr %node45, i32 0, i32 1
  store ptr %le_next42, ptr %le_prev46, align 8
  br label %if.end47

if.end47:                                         ; preds = %if.then40, %do.body36
  %50 = load ptr, ptr %ngl, align 8
  %51 = load ptr, ptr %container.addr, align 8
  %gpios48 = getelementptr inbounds %struct.DeviceState, ptr %51, i32 0, i32 10
  %lh_first49 = getelementptr inbounds %struct.NamedGPIOListHead, ptr %gpios48, i32 0, i32 0
  store ptr %50, ptr %lh_first49, align 8
  %52 = load ptr, ptr %container.addr, align 8
  %gpios50 = getelementptr inbounds %struct.DeviceState, ptr %52, i32 0, i32 10
  %lh_first51 = getelementptr inbounds %struct.NamedGPIOListHead, ptr %gpios50, i32 0, i32 0
  %53 = load ptr, ptr %ngl, align 8
  %node52 = getelementptr inbounds %struct.NamedGPIOList, ptr %53, i32 0, i32 4
  %le_prev53 = getelementptr inbounds %struct.anon, ptr %node52, i32 0, i32 1
  store ptr %lh_first51, ptr %le_prev53, align 8
  br label %do.end54

do.end54:                                         ; preds = %if.end47
  ret void
}