; Function Attrs: nounwind sspstrong uwtable
define dso_local void @qdev_pass_gpios(ptr noundef %dev, ptr noundef %container, ptr noundef %name) local_unnamed_addr #0 {
entry:
  %gpios.i = getelementptr inbounds nuw i8, ptr %dev, i64 96
  %ngl.016.i = load ptr, ptr %gpios.i, align 8
  %tobool.not17.i = icmp eq ptr %ngl.016.i, null
  br i1 %tobool.not17.i, label %for.end.i, label %for.body.i

for.body.i:                                       ; preds = %entry, %for.inc.i
  %ngl.018.i = phi ptr [ %ngl.0.i, %for.inc.i ], [ %ngl.016.i, %entry ]
  %0 = load ptr, ptr %ngl.018.i, align 8
  %call.i = tail call i32 @g_strcmp0(ptr noundef %name, ptr noundef %0) #5
  %cmp.i = icmp eq i32 %call.i, 0
  br i1 %cmp.i, label %qdev_get_named_gpio_list.exit, label %for.inc.i

for.inc.i:                                        ; preds = %for.body.i
  %node.i = getelementptr inbounds nuw i8, ptr %ngl.018.i, i64 24
  %ngl.0.i = load ptr, ptr %node.i, align 8
  %tobool.not.i = icmp eq ptr %ngl.0.i, null
  br i1 %tobool.not.i, label %for.end.i, label %for.body.i, !llvm.loop !5

for.end.i:                                        ; preds = %for.inc.i, %entry
  %call2.i = tail call noalias dereferenceable_or_null(40) ptr @g_malloc0(i64 noundef 40) #6
  %call3.i = tail call noalias ptr @g_strdup(ptr noundef %name) #5
  store ptr %call3.i, ptr %call2.i, align 8
  %1 = load ptr, ptr %gpios.i, align 8
  %node7.i = getelementptr inbounds nuw i8, ptr %call2.i, i64 24
  store ptr %1, ptr %node7.i, align 8
  %cmp9.not.i = icmp eq ptr %1, null
  br i1 %cmp9.not.i, label %if.end16.i, label %if.then10.i

if.then10.i:                                      ; preds = %for.end.i
  %le_prev.i = getelementptr inbounds nuw i8, ptr %1, i64 32
  store ptr %node7.i, ptr %le_prev.i, align 8
  br label %if.end16.i

if.end16.i:                                       ; preds = %if.then10.i, %for.end.i
  store ptr %call2.i, ptr %gpios.i, align 8
  %le_prev22.i = getelementptr inbounds nuw i8, ptr %call2.i, i64 32
  store ptr %gpios.i, ptr %le_prev22.i, align 8
  br label %qdev_get_named_gpio_list.exit

qdev_get_named_gpio_list.exit:                    ; preds = %for.body.i, %if.end16.i
  %retval.0.i = phi ptr [ %call2.i, %if.end16.i ], [ %ngl.018.i, %for.body.i ]
  %num_in = getelementptr inbounds nuw i8, ptr %retval.0.i, i64 16
  %2 = load i32, ptr %num_in, align 8
  %cmp37 = icmp sgt i32 %2, 0
  br i1 %cmp37, label %for.body, label %for.cond5.preheader

for.cond5.preheader:                              ; preds = %for.body, %qdev_get_named_gpio_list.exit
  %num_out = getelementptr inbounds nuw i8, ptr %retval.0.i, i64 20
  %3 = load i32, ptr %num_out, align 4
  %cmp639 = icmp sgt i32 %3, 0
  br i1 %cmp639, label %for.body7, label %do.body

for.body:                                         ; preds = %qdev_get_named_gpio_list.exit, %for.body
  %i.038 = phi i32 [ %inc, %for.body ], [ 0, %qdev_get_named_gpio_list.exit ]
  %4 = load ptr, ptr %retval.0.i, align 8
  %tobool.not = icmp eq ptr %4, null
  %spec.select = select i1 %tobool.not, ptr @.str.2, ptr %4
  %call3 = tail call noalias ptr (ptr, ...) @g_strdup_printf(ptr noundef nonnull @.str.8, ptr noundef nonnull %spec.select, i32 noundef %i.038) #5
  %call4 = tail call ptr @object_property_add_alias(ptr noundef %container, ptr noundef %call3, ptr noundef %dev, ptr noundef %call3) #5
  tail call void @g_free(ptr noundef %call3) #5
  %inc = add nuw nsw i32 %i.038, 1
  %5 = load i32, ptr %num_in, align 8
  %cmp = icmp slt i32 %inc, %5
  br i1 %cmp, label %for.body, label %for.cond5.preheader, !llvm.loop !9

for.body7:                                        ; preds = %for.cond5.preheader, %for.body7
  %i.140 = phi i32 [ %inc20, %for.body7 ], [ 0, %for.cond5.preheader ]
  %6 = load ptr, ptr %retval.0.i, align 8
  %tobool10.not = icmp eq ptr %6, null
  %spec.select35 = select i1 %tobool10.not, ptr @.str.5, ptr %6
  %call17 = tail call noalias ptr (ptr, ...) @g_strdup_printf(ptr noundef nonnull @.str.8, ptr noundef nonnull %spec.select35, i32 noundef %i.140) #5
  %call18 = tail call ptr @object_property_add_alias(ptr noundef %container, ptr noundef %call17, ptr noundef %dev, ptr noundef %call17) #5
  tail call void @g_free(ptr noundef %call17) #5
  %inc20 = add nuw nsw i32 %i.140, 1
  %7 = load i32, ptr %num_out, align 4
  %cmp6 = icmp slt i32 %inc20, %7
  br i1 %cmp6, label %for.body7, label %do.body, !llvm.loop !10

do.body:                                          ; preds = %for.body7, %for.cond5.preheader
  %node = getelementptr inbounds nuw i8, ptr %retval.0.i, i64 24
  %8 = load ptr, ptr %node, align 8
  %cmp22.not = icmp eq ptr %8, null
  %le_prev31.phi.trans.insert = getelementptr inbounds nuw i8, ptr %retval.0.i, i64 32
  %.pre42 = load ptr, ptr %le_prev31.phi.trans.insert, align 8
  br i1 %cmp22.not, label %if.end, label %if.then

if.then:                                          ; preds = %do.body
  %le_prev27 = getelementptr inbounds nuw i8, ptr %8, i64 32
  store ptr %.pre42, ptr %le_prev27, align 8
  %.pre = load ptr, ptr %node, align 8
  br label %if.end

if.end:                                           ; preds = %do.body, %if.then
  %9 = phi ptr [ %.pre, %if.then ], [ null, %do.body ]
  store ptr %9, ptr %.pre42, align 8
  %gpios = getelementptr inbounds nuw i8, ptr %container, i64 96
  tail call void @llvm.memset.p0.i64(ptr noundef nonnull align 8 dereferenceable(16) %node, i8 0, i64 16, i1 false)
  %10 = load ptr, ptr %gpios, align 8
  store ptr %10, ptr %node, align 8
  %cmp39.not = icmp eq ptr %10, null
  br i1 %cmp39.not, label %if.end47, label %if.then40

if.then40:                                        ; preds = %if.end
  %le_prev46 = getelementptr inbounds nuw i8, ptr %10, i64 32
  store ptr %node, ptr %le_prev46, align 8
  br label %if.end47

if.end47:                                         ; preds = %if.then40, %if.end
  %le_prev31 = getelementptr inbounds nuw i8, ptr %retval.0.i, i64 32
  store ptr %retval.0.i, ptr %gpios, align 8
  store ptr %gpios, ptr %le_prev31, align 8
  ret void
}